cnumpy.core.multiarray
scalar
p1
(cnumpy
dtype
p2
(S'f8'
I0
I1
tRp3
(I3
S'<'
NNNI-1
I-1
I0
tbS'(\xf2\x90In\x9f?@'
tRp4
.(lp1
cnumpy.core.multiarray
scalar
p2
(cnumpy
dtype
p3
(S'f8'
I0
I1
tRp4
(I3
S'<'
NNNI-1
I-1
I0
tbS'\xaf\xd0\\>I\x97\xf3?'
tRp5
ag2
(g4
S'\xedc\x159\x1d\n\xf8?'
tRp6
ag2
(g4
S'\x8d\xab-?"\x82\xf8?'
tRp7
ag2
(g4
S'\x04%2\x95\xd0A7@'
tRp8
a.