cnumpy.core.multiarray
scalar
p1
(cnumpy
dtype
p2
(S'f8'
I0
I1
tRp3
(I3
S'<'
NNNI-1
I-1
I0
tbS'\x00\x00\x00\x00\x00\x00$@'
tRp4
.(lp1
cnumpy.core.multiarray
scalar
p2
(cnumpy
dtype
p3
(S'f8'
I0
I1
tRp4
(I3
S'<'
NNNI-1
I-1
I0
tbS'\xda\xcf\x1f\xe7\xeb1\xf5?'
tRp5
ag2
(g4
S'\x18\xfa.n\xd1[\xf9?'
tRp6
ag2
(g4
S'\x00\x1d\xa4q\n)\x05@'
tRp7
ag2
(g4
S'\r[5\xd3\xa6\t\x13@'
tRp8
a.