cnumpy.core.multiarray
scalar
p1
(cnumpy
dtype
p2
(S'f8'
I0
I1
tRp3
(I3
S'<'
NNNI-1
I-1
I0
tbS'(\xf2\x90In\x9f?@'
tRp4
.(lp1
cnumpy.core.multiarray
scalar
p2
(cnumpy
dtype
p3
(S'f8'
I0
I1
tRp4
(I3
S'<'
NNNI-1
I-1
I0
tbS'"\x8a\xecj\x11\x98\xf0?'
tRp5
ag2
(g4
S'\x02\xf8<\xf1l\xbcA@'
tRp6
a.