cnumpy.core.multiarray
scalar
p1
(cnumpy
dtype
p2
(S'f8'
I0
I1
tRp3
(I3
S'<'
NNNI-1
I-1
I0
tbS'\x00\x00\x00\x00\x00\x00$@'
tRp4
.(lp1
cnumpy.core.multiarray
scalar
p2
(cnumpy
dtype
p3
(S'f8'
I0
I1
tRp4
(I3
S'<'
NNNI-1
I-1
I0
tbS'u>l\xf8\x87,\xf0?'
tRp5
ag2
(g4
S'\xa4\xae]c\xa6d\xfc?'
tRp6
ag2
(g4
S'#\xb5\xa3\x95\xbb\xeb\x1d@'
tRp7
a.