cnumpy.core.multiarray
scalar
p1
(cnumpy
dtype
p2
(S'f8'
I0
I1
tRp3
(I3
S'<'
NNNI-1
I-1
I0
tbS'(\xf2\x90In\x9f?@'
tRp4
.(lp1
cnumpy.core.multiarray
scalar
p2
(cnumpy
dtype
p3
(S'f8'
I0
I1
tRp4
(I3
S'<'
NNNI-1
I-1
I0
tbS'\xef\x876\x10\xff\xa1D@'
tRp5
a.