cnumpy.core.multiarray
scalar
p1
(cnumpy
dtype
p2
(S'f8'
I0
I1
tRp3
(I3
S'<'
NNNI-1
I-1
I0
tbS'(\xf2\x90In\x9f?@'
tRp4
.(lp1
cnumpy.core.multiarray
scalar
p2
(cnumpy
dtype
p3
(S'f8'
I0
I1
tRp4
(I3
S'<'
NNNI-1
I-1
I0
tbS'\xcb\x82\xf1Y\x1eh\xfa?'
tRp5
ag2
(g4
S'(?X\xeb\xc5)\x00@'
tRp6
ag2
(g4
S'\xc6\xeb\xb5\xe5\x92\xe4\x00@'
tRp7
ag2
(g4
S't\x07\xf4DYd\x02@'
tRp8
ag2
(g4
S'\xdbc(@\xabn\x02@'
tRp9
ag2
(g4
S't\nh\x07\x16\x874@'
tRp10
a.