cnumpy.core.multiarray
scalar
p1
(cnumpy
dtype
p2
(S'f8'
I0
I1
tRp3
(I3
S'<'
NNNI-1
I-1
I0
tbS'\x00\x00\x00\x00\x00\x00$@'
tRp4
.(lp1
cnumpy.core.multiarray
scalar
p2
(cnumpy
dtype
p3
(S'f8'
I0
I1
tRp4
(I3
S'<'
NNNI-1
I-1
I0
tbS'6\x8b4\x06\xbf\xb3\xf0?'
tRp5
ag2
(g4
S'\xd7\xaf$e\xb6\x81\x06@'
tRp6
ag2
(g4
S'1\xd5\x8d\xdaP\x95\x19@'
tRp7
a.