cnumpy.core.multiarray
scalar
p1
(cnumpy
dtype
p2
(S'f8'
I0
I1
tRp3
(I3
S'<'
NNNI-1
I-1
I0
tbS'(\xf2\x90In\x9f?@'
tRp4
.(lp1
cnumpy.core.multiarray
scalar
p2
(cnumpy
dtype
p3
(S'f8'
I0
I1
tRp4
(I3
S'<'
NNNI-1
I-1
I0
tbS'\\y1\xec\xd50\xf3?'
tRp5
ag2
(g4
S'V\x90\xc8~\xd4t\xf9?'
tRp6
ag2
(g4
S'o\xa3\xdc\xe1\x82v\x03@'
tRp7
ag2
(g4
S'\x19~\xb3\xdbJ\xd9\x11@'
tRp8
ag2
(g4
S'\x9b\xb9 (\x83\xd35@'
tRp9
a.