cnumpy.core.multiarray
scalar
p1
(cnumpy
dtype
p2
(S'f8'
I0
I1
tRp3
(I3
S'<'
NNNI-1
I-1
I0
tbS'(\xf2\x90In\x9f?@'
tRp4
.(lp1
cnumpy.core.multiarray
scalar
p2
(cnumpy
dtype
p3
(S'f8'
I0
I1
tRp4
(I3
S'<'
NNNI-1
I-1
I0
tbS'A\x1d?\x1b\x8f4\xf5?'
tRp5
ag2
(g4
S'\x00\x95h[\\\x97\xfa?'
tRp6
ag2
(g4
S'"\x06\x98\t\x01\t\xff?'
tRp7
ag2
(g4
S'+\x845\xd1\x93\x93\x05@'
tRp8
ag2
(g4
S'\xc4cb\x96\xa2(>@'
tRp9
a.