cnumpy.core.multiarray
scalar
p1
(cnumpy
dtype
p2
(S'f8'
I0
I1
tRp3
(I3
S'<'
NNNI-1
I-1
I0
tbS'\x00\x00\x00\x00\x00\x00$@'
tRp4
.(lp1
cnumpy.core.multiarray
scalar
p2
(cnumpy
dtype
p3
(S'f8'
I0
I1
tRp4
(I3
S'<'
NNNI-1
I-1
I0
tbS'?\xaf\x82>Fz\xf0?'
tRp5
ag2
(g4
S')F)\xedF\xcf\xf2?'
tRp6
ag2
(g4
S'e|%\x0cw\xbf\x05@'
tRp7
ag2
(g4
S'p\xb9W9\x86\x9b\x0f@'
tRp8
a.