cnumpy.core.multiarray
scalar
p1
(cnumpy
dtype
p2
(S'f8'
I0
I1
tRp3
(I3
S'<'
NNNI-1
I-1
I0
tbS'\x00\x00\x00\x00\x00\x00$@'
tRp4
.(lp1
cnumpy.core.multiarray
scalar
p2
(cnumpy
dtype
p3
(S'f8'
I0
I1
tRp4
(I3
S'<'
NNNI-1
I-1
I0
tbS'\x16\x8c\x17s\x18q\xf0?'
tRp5
ag2
(g4
S'\xd3gc\x89\xbfJ\xf5?'
tRp6
ag2
(g4
S'\xe5Xq\xd8x\r\xf8?'
tRp7
ag2
(g4
S'\xfed\xda\xdb\x1a-\x16@'
tRp8
a.