cnumpy.core.multiarray
scalar
p1
(cnumpy
dtype
p2
(S'f8'
I0
I1
tRp3
(I3
S'<'
NNNI-1
I-1
I0
tbS'\x00\x00\x00\x00\x00\x00$@'
tRp4
.(lp1
cnumpy.core.multiarray
scalar
p2
(cnumpy
dtype
p3
(S'f8'
I0
I1
tRp4
(I3
S'<'
NNNI-1
I-1
I0
tbS'Rv\xb3/+\x90\xf5?'
tRp5
ag2
(g4
S'B(\xe5\xe2/@\xf8?'
tRp6
ag2
(g4
S'0\xd6A8~\xef\xf8?'
tRp7
ag2
(g4
S'\x91\xd0\xed\xe0\t\x96\x15@'
tRp8
a.