cnumpy.core.multiarray
scalar
p1
(cnumpy
dtype
p2
(S'f8'
I0
I1
tRp3
(I3
S'<'
NNNI-1
I-1
I0
tbS'\x00\x00\x00\x00\x00\x00$@'
tRp4
.(lp1
cnumpy.core.multiarray
scalar
p2
(cnumpy
dtype
p3
(S'f8'
I0
I1
tRp4
(I3
S'<'
NNNI-1
I-1
I0
tbS'\x84\xd9\xdc\xb9\xda\t\xf3?'
tRp5
ag2
(g4
S'.\xdf\x99\x08\xa1\x9a\t@'
tRp6
ag2
(g4
S' !\xbds\xe2^\x17@'
tRp7
a.