cnumpy.core.multiarray
scalar
p1
(cnumpy
dtype
p2
(S'f8'
I0
I1
tRp3
(I3
S'<'
NNNI-1
I-1
I0
tbS'\x00\x00\x00\x00\x00\x00$@'
tRp4
.(lp1
cnumpy.core.multiarray
scalar
p2
(cnumpy
dtype
p3
(S'f8'
I0
I1
tRp4
(I3
S'<'
NNNI-1
I-1
I0
tbS'\xab\xa32v\x7fX\xfb?'
tRp5
ag2
(g4
S' \x0f\x0b:?\xce\xfc?'
tRp6
ag2
(g4
S'\xaa\x9d@\xd3g\xed\xfe?'
tRp7
ag2
(g4
S'\xa69\x97+X\xd0\x03@'
tRp8
a.