cnumpy.core.multiarray
scalar
p1
(cnumpy
dtype
p2
(S'f8'
I0
I1
tRp3
(I3
S'<'
NNNI-1
I-1
I0
tbS'(\xf2\x90In\x9f?@'
tRp4
.(lp1
cnumpy.core.multiarray
scalar
p2
(cnumpy
dtype
p3
(S'f8'
I0
I1
tRp4
(I3
S'<'
NNNI-1
I-1
I0
tbS'89\x84?\xdd\xaf\x0b@'
tRp5
ag2
(g4
S'\x1e\xaa~\xa9\xa4\x7f\x1d@'
tRp6
ag2
(g4
S'\xff?\xe1\xe5\xaf\xa73@'
tRp7
a.