cnumpy.core.multiarray
scalar
p1
(cnumpy
dtype
p2
(S'f8'
I0
I1
tRp3
(I3
S'<'
NNNI-1
I-1
I0
tbS'\x00\x00\x00\x00\x00\x00$@'
tRp4
.(lp1
cnumpy.core.multiarray
scalar
p2
(cnumpy
dtype
p3
(S'f8'
I0
I1
tRp4
(I3
S'<'
NNNI-1
I-1
I0
tbS'\xf8\xbb9s\x7f6\xfe?'
tRp5
ag2
(g4
S'\xd5\xeew/Uu\x11@'
tRp6
ag2
(g4
S'=\xfd\xd1M\xa5d\x16@'
tRp7
a.