cnumpy.core.multiarray
scalar
p1
(cnumpy
dtype
p2
(S'f8'
I0
I1
tRp3
(I3
S'<'
NNNI-1
I-1
I0
tbS'(\xf2\x90In\x9f?@'
tRp4
.(lp1
cnumpy.core.multiarray
scalar
p2
(cnumpy
dtype
p3
(S'f8'
I0
I1
tRp4
(I3
S'<'
NNNI-1
I-1
I0
tbS'\xc3\x92\xf2f"\x01\xf0?'
tRp5
ag2
(g4
S"k\xc69\x82'\xd5\xf1?"
tRp6
ag2
(g4
S'\xecMH\xb8\xd9\xbb\x07@'
tRp7
ag2
(g4
S'\x8a\x06\x15\x84|\xef(@'
tRp8
ag2
(g4
S'q\xf4\xd4\x12A!+@'
tRp9
a.