cnumpy.core.multiarray
scalar
p1
(cnumpy
dtype
p2
(S'f8'
I0
I1
tRp3
(I3
S'<'
NNNI-1
I-1
I0
tbS'\x00\x00\x00\x00\x00\x00$@'
tRp4
.(lp1
cnumpy.core.multiarray
scalar
p2
(cnumpy
dtype
p3
(S'f8'
I0
I1
tRp4
(I3
S'<'
NNNI-1
I-1
I0
tbS"|\xa0T\xb5'\x03\xf2?"
tRp5
ag2
(g4
S'\xe4\x17q\xd0E\x1e\xf2?'
tRp6
ag2
(g4
S'\xc86\xa6\xd9\x99\x90\x1e@'
tRp7
a.