cnumpy.core.multiarray
scalar
p1
(cnumpy
dtype
p2
(S'f8'
I0
I1
tRp3
(I3
S'<'
NNNI-1
I-1
I0
tbS'\x00\x00\x00\x00\x00\x00$@'
tRp4
.(lp1
cnumpy.core.multiarray
scalar
p2
(cnumpy
dtype
p3
(S'f8'
I0
I1
tRp4
(I3
S'<'
NNNI-1
I-1
I0
tbS'\xa9\xdc}\x92\xb7O\xf3?'
tRp5
ag2
(g4
S'6\x02o%\xe0\x14\xf4?'
tRp6
ag2
(g4
S'\xc4\x065:*\xca\x06@'
tRp7
ag2
(g4
S';\x14z\xfc\xb7h\x10@'
tRp8
a.