cnumpy.core.multiarray
scalar
p1
(cnumpy
dtype
p2
(S'f8'
I0
I1
tRp3
(I3
S'<'
NNNI-1
I-1
I0
tbS'\x00\x00\x00\x00\x00\x00$@'
tRp4
.(lp1
cnumpy.core.multiarray
scalar
p2
(cnumpy
dtype
p3
(S'f8'
I0
I1
tRp4
(I3
S'<'
NNNI-1
I-1
I0
tbS'\xe6"\xe5!\x92\xb5\xfd?'
tRp5
ag2
(g4
S'\x1d\xcdH\xad!0\x01@'
tRp6
ag2
(g4
S'\x7ft\xc1\xe7,F\x15@'
tRp7
a.