cnumpy.core.multiarray
scalar
p1
(cnumpy
dtype
p2
(S'f8'
I0
I1
tRp3
(I3
S'<'
NNNI-1
I-1
I0
tbS'\x00\x00\x00\x00\x00\x00$@'
tRp4
.(lp1
cnumpy.core.multiarray
scalar
p2
(cnumpy
dtype
p3
(S'f8'
I0
I1
tRp4
(I3
S'<'
NNNI-1
I-1
I0
tbS' u\x8ci3\xb4\xf0?'
tRp5
ag2
(g4
S"T\x1ba>'t\xf2?"
tRp6
ag2
(g4
S'^\x10\xec\xe9,\x87\xf4?'
tRp7
ag2
(g4
S'\xb6\xf4\x08\xd7Ze\x05@'
tRp8
ag2
(g4
S'n\xb3\x80<\xb5R\r@'
tRp9
a.